; Function Attrs: mustprogress uwtable
define internal fastcc noundef i32 @_ZL18count_expr_key_varPK10Expression(ptr noundef %0) unnamed_addr #3 {
  br label %tailrecurse.outer

tailrecurse.outer:                                ; preds = %24, %1
  %accumulator.tr.ph = phi i32 [ %31, %24 ], [ 0, %1 ]
  %.tr.ph = phi ptr [ %30, %24 ], [ %0, %1 ]
  br label %tailrecurse

tailrecurse:                                      ; preds = %tailrecurse.outer, %22
  %.tr = phi ptr [ %23, %22 ], [ %.tr.ph, %tailrecurse.outer ]
  %2 = getelementptr inbounds i8, ptr %.tr, i64 8
  %3 = load i32, ptr %2, align 8
  switch i32 %3, label %.loopexit [
    i32 1, label %.loopexit.loopexit
    i32 2, label %4
  ]

4:                                                ; preds = %tailrecurse
  %5 = tail call ptr @__dynamic_cast(ptr nonnull %.tr, ptr nonnull @_ZTI10Expression, ptr nonnull @_ZTI17ExpressionFuncall, i64 0) #19
  %6 = load ptr, ptr %5, align 8
  %7 = getelementptr inbounds i8, ptr %6, i64 56
  %8 = load ptr, ptr %7, align 8
  %9 = tail call noundef ptr %8(ptr noundef nonnull align 8 dereferenceable(32) %5)
  %10 = getelementptr inbounds i8, ptr %9, i64 8
  %11 = load i32, ptr %10, align 8
  %12 = icmp eq i32 %11, 2
  br i1 %12, label %.loopexit, label %13

13:                                               ; preds = %4
  %14 = getelementptr inbounds i8, ptr %9, i64 16
  %15 = getelementptr inbounds i8, ptr %9, i64 24
  %16 = load ptr, ptr %15, align 8
  %17 = load ptr, ptr %14, align 8
  %18 = ptrtoint ptr %16 to i64
  %19 = ptrtoint ptr %17 to i64
  %20 = sub i64 %18, %19
  %21 = icmp eq i64 %20, 8
  br i1 %21, label %22, label %24

22:                                               ; preds = %13
  %23 = load ptr, ptr %17, align 8
  br label %tailrecurse

24:                                               ; preds = %13
  %25 = getelementptr inbounds i8, ptr %9, i64 16
  %26 = load ptr, ptr %17, align 8
  %27 = tail call fastcc noundef i32 @_ZL18count_expr_key_varPK10Expression(ptr noundef %26)
  %28 = load ptr, ptr %25, align 8
  %29 = getelementptr inbounds i8, ptr %28, i64 8
  %30 = load ptr, ptr %29, align 8
  %31 = add nsw i32 %27, %accumulator.tr.ph
  br label %tailrecurse.outer

.loopexit.loopexit:                               ; preds = %tailrecurse
  br label %.loopexit

.loopexit:                                        ; preds = %4, %tailrecurse, %.loopexit.loopexit
  %.0 = phi i32 [ 0, %tailrecurse ], [ 2, %4 ], [ %3, %.loopexit.loopexit ]
  %accumulator.ret.tr = add nsw i32 %.0, %accumulator.tr.ph
  ret i32 %accumulator.ret.tr
}